target datalayout = "e-m:e-p270:32:32-p271:32:32-p272:64:64-i64:64-i128:128-f80:128-n8:16:32:64-S128"
target triple = "x86_64-pc-linux-gnu"

%struct.ieee802154_packet = type { i32, i32, i32, i32, i8, i8, i8, i8, i8, i8, i8, i8, i8, i8, i8, i8, i16, i16, i16, i64, i16, i64, i32, i32, i8, i32, i8, i64, %union.anon, i8, i8, ptr }
%union.anon = type { i64 }
%struct.ieee802154_key_t = type { ptr, i32, i32, [16 x i8], [16 x i8] }

@mac_key_hash_handlers = internal global ptr null, align 8

; Function Attrs: alwaysinline nounwind
define internal ptr @memcpy.inline(ptr noalias %0, ptr noalias %1, i64 %2) #9 {
  %4 = alloca ptr, align 8
  %5 = alloca ptr, align 8
  %6 = alloca i64, align 8
  store ptr %0, ptr %4, align 8
  store ptr %1, ptr %5, align 8
  store i64 %2, ptr %6, align 8
  %7 = load ptr, ptr %4, align 8
  %8 = load ptr, ptr %5, align 8
  %9 = load i64, ptr %6, align 8
  %10 = load ptr, ptr %4, align 8
  %11 = call i64 @llvm.objectsize.i64.p0(ptr %10, i1 false, i1 true, i1 true)
  %12 = call ptr @__memcpy_chk(ptr noundef %7, ptr noundef %8, i64 noundef %9, i64 noundef %11) #17
  ret ptr %12
}

; Function Attrs: null_pointer_is_valid sspstrong uwtable
define internal i32 @ieee802154_set_mac_key(ptr noundef %0, ptr noundef %1, ptr noundef %2, ptr noundef %3) #0 {
  %5 = alloca i32, align 4
  %6 = alloca ptr, align 8
  %7 = alloca ptr, align 8
  %8 = alloca ptr, align 8
  %9 = alloca ptr, align 8
  %10 = alloca ptr, align 8
  %11 = alloca i32, align 4
  store ptr %0, ptr %6, align 8
  store ptr %1, ptr %7, align 8
  store ptr %2, ptr %8, align 8
  store ptr %3, ptr %9, align 8
  call void @llvm.lifetime.start.p0(i64 8, ptr %10) #17
  %12 = load ptr, ptr @mac_key_hash_handlers, align 8
  %13 = load ptr, ptr %9, align 8
  %14 = getelementptr inbounds nuw %struct.ieee802154_key_t, ptr %13, i32 0, i32 2
  %15 = load i32, ptr %14, align 4
  %16 = call ptr @wmem_tree_lookup32(ptr noundef %12, i32 noundef %15)
  store ptr %16, ptr %10, align 8
  %17 = load ptr, ptr %10, align 8
  %18 = icmp ne ptr %17, null
  br i1 %18, label %19, label %26

19:                                               ; preds = %4
  %20 = load ptr, ptr %10, align 8
  %21 = load ptr, ptr %6, align 8
  %22 = load ptr, ptr %7, align 8
  %23 = load ptr, ptr %8, align 8
  %24 = load ptr, ptr %9, align 8
  %25 = call i32 %20(ptr noundef %21, ptr noundef %22, ptr noundef %23, ptr noundef %24)
  store i32 %25, ptr %5, align 4
  store i32 1, ptr %11, align 4
  br label %42

26:                                               ; preds = %4
  %27 = load ptr, ptr %6, align 8
  %28 = getelementptr inbounds nuw %struct.ieee802154_packet, ptr %27, i32 0, i32 29
  %29 = load i8, ptr %28, align 8
  %30 = zext i8 %29 to i32
  %31 = load ptr, ptr %9, align 8
  %32 = getelementptr inbounds nuw %struct.ieee802154_key_t, ptr %31, i32 0, i32 1
  %33 = load i32, ptr %32, align 8
  %34 = icmp eq i32 %30, %33
  br i1 %34, label %35, label %41

35:                                               ; preds = %26
  %36 = load ptr, ptr %7, align 8
  %37 = load ptr, ptr %9, align 8
  %38 = getelementptr inbounds nuw %struct.ieee802154_key_t, ptr %37, i32 0, i32 3
  %39 = getelementptr inbounds [16 x i8], ptr %38, i64 0, i64 0
  %40 = call ptr @memcpy.inline(ptr noundef %36, ptr noundef %39, i64 noundef 16) #17
  store i32 1, ptr %5, align 4
  store i32 1, ptr %11, align 4
  br label %42

41:                                               ; preds = %26
  store i32 0, ptr %5, align 4
  store i32 1, ptr %11, align 4
  br label %42

42:                                               ; preds = %41, %35, %19
  call void @llvm.lifetime.end.p0(i64 8, ptr %10) #17
  %43 = load i32, ptr %5, align 4
  ret i32 %43
}